target datalayout = "e-m:e-p270:32:32-p271:32:32-p272:64:64-i64:64-i128:128-f80:128-n8:16:32:64-S128"
target triple = "x86_64-pc-linux-gnu"

%struct.mspack_system = type { ptr, ptr, ptr, ptr, ptr, ptr, ptr, ptr, ptr, ptr, ptr }
%struct.mschm_decompressor_p = type { %struct.mschm_decompressor, ptr, ptr, i32 }
%struct.mschm_decompressor = type { ptr, ptr, ptr, ptr, ptr, ptr }
%struct.mschmd_header = type { i32, i32, i32, ptr, i64, ptr, ptr, %struct.mschmd_sec_uncompressed, %struct.mschmd_sec_mscompressed, i64, i32, i32, i32, i32, i32, i32, i32, ptr }
%struct.mschmd_sec_uncompressed = type { %struct.mschmd_section, i64 }
%struct.mschmd_section = type { ptr, i32 }
%struct.mschmd_sec_mscompressed = type { %struct.mschmd_section, ptr, ptr, ptr, ptr }
%struct.mschmd_file = type { ptr, ptr, i64, i64, ptr }
%struct.mschmd_decompress_state = type { ptr, i64, i64, i64, ptr, %struct.mspack_system, ptr, ptr }

@spaninfo_name = internal global ptr @.str.11, align 8

; Function Attrs: nounwind uwtable
define internal i32 @read_off64(ptr noundef %0, ptr noundef %1, ptr noundef %2, ptr noundef %3) #0 {
  %5 = alloca ptr, align 8
  %6 = alloca ptr, align 8
  %7 = alloca ptr, align 8
  %8 = alloca ptr, align 8
  store ptr %0, ptr %5, align 8
  store ptr %1, ptr %6, align 8
  store ptr %2, ptr %7, align 8
  store ptr %3, ptr %8, align 8
  %9 = load ptr, ptr %6, align 8
  %10 = getelementptr inbounds i8, ptr %9, i64 7
  %11 = load i8, ptr %10, align 1
  %12 = zext i8 %11 to i32
  %13 = shl i32 %12, 24
  %14 = load ptr, ptr %6, align 8
  %15 = getelementptr inbounds i8, ptr %14, i64 6
  %16 = load i8, ptr %15, align 1
  %17 = zext i8 %16 to i32
  %18 = shl i32 %17, 16
  %19 = or i32 %13, %18
  %20 = load ptr, ptr %6, align 8
  %21 = getelementptr inbounds i8, ptr %20, i64 5
  %22 = load i8, ptr %21, align 1
  %23 = zext i8 %22 to i32
  %24 = shl i32 %23, 8
  %25 = or i32 %19, %24
  %26 = load ptr, ptr %6, align 8
  %27 = getelementptr inbounds i8, ptr %26, i64 4
  %28 = load i8, ptr %27, align 1
  %29 = zext i8 %28 to i32
  %30 = or i32 %25, %29
  %31 = zext i32 %30 to i64
  %32 = shl i64 %31, 32
  %33 = load ptr, ptr %6, align 8
  %34 = getelementptr inbounds i8, ptr %33, i64 3
  %35 = load i8, ptr %34, align 1
  %36 = zext i8 %35 to i32
  %37 = shl i32 %36, 24
  %38 = load ptr, ptr %6, align 8
  %39 = getelementptr inbounds i8, ptr %38, i64 2
  %40 = load i8, ptr %39, align 1
  %41 = zext i8 %40 to i32
  %42 = shl i32 %41, 16
  %43 = or i32 %37, %42
  %44 = load ptr, ptr %6, align 8
  %45 = getelementptr inbounds i8, ptr %44, i64 1
  %46 = load i8, ptr %45, align 1
  %47 = zext i8 %46 to i32
  %48 = shl i32 %47, 8
  %49 = or i32 %43, %48
  %50 = load ptr, ptr %6, align 8
  %51 = getelementptr inbounds i8, ptr %50, i64 0
  %52 = load i8, ptr %51, align 1
  %53 = zext i8 %52 to i32
  %54 = or i32 %49, %53
  %55 = zext i32 %54 to i64
  %56 = or i64 %32, %55
  %57 = load ptr, ptr %5, align 8
  store i64 %56, ptr %57, align 8
  ret i32 0
}

; Function Attrs: nounwind uwtable
define internal ptr @read_sys_file(ptr noundef %0, ptr noundef %1) #0 {
  %3 = alloca ptr, align 8
  %4 = alloca ptr, align 8
  %5 = alloca ptr, align 8
  %6 = alloca ptr, align 8
  %7 = alloca ptr, align 8
  %8 = alloca i32, align 4
  store ptr %0, ptr %4, align 8
  store ptr %1, ptr %5, align 8
  %9 = load ptr, ptr %4, align 8
  %10 = getelementptr inbounds %struct.mschm_decompressor_p, ptr %9, i32 0, i32 1
  %11 = load ptr, ptr %10, align 8
  store ptr %11, ptr %6, align 8
  store ptr null, ptr %7, align 8
  %12 = load ptr, ptr %5, align 8
  %13 = icmp ne ptr %12, null
  br i1 %13, label %14, label %26

14:                                               ; preds = %2
  %15 = load ptr, ptr %5, align 8
  %16 = getelementptr inbounds %struct.mschmd_file, ptr %15, i32 0, i32 1
  %17 = load ptr, ptr %16, align 8
  %18 = icmp ne ptr %17, null
  br i1 %18, label %19, label %26

19:                                               ; preds = %14
  %20 = load ptr, ptr %5, align 8
  %21 = getelementptr inbounds %struct.mschmd_file, ptr %20, i32 0, i32 1
  %22 = load ptr, ptr %21, align 8
  %23 = getelementptr inbounds %struct.mschmd_section, ptr %22, i32 0, i32 1
  %24 = load i32, ptr %23, align 8
  %25 = icmp ne i32 %24, 0
  br i1 %25, label %26, label %29

26:                                               ; preds = %19, %14, %2
  %27 = load ptr, ptr %4, align 8
  %28 = getelementptr inbounds %struct.mschm_decompressor_p, ptr %27, i32 0, i32 3
  store i32 8, ptr %28, align 8
  store ptr null, ptr %3, align 8
  br label %98

29:                                               ; preds = %19
  %30 = load ptr, ptr %5, align 8
  %31 = getelementptr inbounds %struct.mschmd_file, ptr %30, i32 0, i32 3
  %32 = load i64, ptr %31, align 8
  %33 = trunc i64 %32 to i32
  store i32 %33, ptr %8, align 4
  %34 = load ptr, ptr %6, align 8
  %35 = getelementptr inbounds %struct.mspack_system, ptr %34, i32 0, i32 7
  %36 = load ptr, ptr %35, align 8
  %37 = load ptr, ptr %6, align 8
  %38 = load i32, ptr %8, align 4
  %39 = sext i32 %38 to i64
  %40 = call ptr %36(ptr noundef %37, i64 noundef %39)
  store ptr %40, ptr %7, align 8
  %41 = icmp ne ptr %40, null
  br i1 %41, label %45, label %42

42:                                               ; preds = %29
  %43 = load ptr, ptr %4, align 8
  %44 = getelementptr inbounds %struct.mschm_decompressor_p, ptr %43, i32 0, i32 3
  store i32 6, ptr %44, align 8
  store ptr null, ptr %3, align 8
  br label %98

45:                                               ; preds = %29
  %46 = load ptr, ptr %6, align 8
  %47 = getelementptr inbounds %struct.mspack_system, ptr %46, i32 0, i32 4
  %48 = load ptr, ptr %47, align 8
  %49 = load ptr, ptr %4, align 8
  %50 = getelementptr inbounds %struct.mschm_decompressor_p, ptr %49, i32 0, i32 2
  %51 = load ptr, ptr %50, align 8
  %52 = getelementptr inbounds %struct.mschmd_decompress_state, ptr %51, i32 0, i32 6
  %53 = load ptr, ptr %52, align 8
  %54 = load ptr, ptr %5, align 8
  %55 = getelementptr inbounds %struct.mschmd_file, ptr %54, i32 0, i32 1
  %56 = load ptr, ptr %55, align 8
  %57 = getelementptr inbounds %struct.mschmd_section, ptr %56, i32 0, i32 0
  %58 = load ptr, ptr %57, align 8
  %59 = getelementptr inbounds %struct.mschmd_header, ptr %58, i32 0, i32 7
  %60 = getelementptr inbounds %struct.mschmd_sec_uncompressed, ptr %59, i32 0, i32 1
  %61 = load i64, ptr %60, align 8
  %62 = load ptr, ptr %5, align 8
  %63 = getelementptr inbounds %struct.mschmd_file, ptr %62, i32 0, i32 2
  %64 = load i64, ptr %63, align 8
  %65 = add nsw i64 %61, %64
  %66 = call i32 %48(ptr noundef %53, i64 noundef %65, i32 noundef 0)
  %67 = icmp ne i32 %66, 0
  br i1 %67, label %68, label %75

68:                                               ; preds = %45
  %69 = load ptr, ptr %4, align 8
  %70 = getelementptr inbounds %struct.mschm_decompressor_p, ptr %69, i32 0, i32 3
  store i32 5, ptr %70, align 8
  %71 = load ptr, ptr %6, align 8
  %72 = getelementptr inbounds %struct.mspack_system, ptr %71, i32 0, i32 8
  %73 = load ptr, ptr %72, align 8
  %74 = load ptr, ptr %7, align 8
  call void %73(ptr noundef %74)
  store ptr null, ptr %3, align 8
  br label %98

75:                                               ; preds = %45
  %76 = load ptr, ptr %6, align 8
  %77 = getelementptr inbounds %struct.mspack_system, ptr %76, i32 0, i32 2
  %78 = load ptr, ptr %77, align 8
  %79 = load ptr, ptr %4, align 8
  %80 = getelementptr inbounds %struct.mschm_decompressor_p, ptr %79, i32 0, i32 2
  %81 = load ptr, ptr %80, align 8
  %82 = getelementptr inbounds %struct.mschmd_decompress_state, ptr %81, i32 0, i32 6
  %83 = load ptr, ptr %82, align 8
  %84 = load ptr, ptr %7, align 8
  %85 = load i32, ptr %8, align 4
  %86 = call i32 %78(ptr noundef %83, ptr noundef %84, i32 noundef %85)
  %87 = load i32, ptr %8, align 4
  %88 = icmp ne i32 %86, %87
  br i1 %88, label %89, label %96

89:                                               ; preds = %75
  %90 = load ptr, ptr %4, align 8
  %91 = getelementptr inbounds %struct.mschm_decompressor_p, ptr %90, i32 0, i32 3
  store i32 3, ptr %91, align 8
  %92 = load ptr, ptr %6, align 8
  %93 = getelementptr inbounds %struct.mspack_system, ptr %92, i32 0, i32 8
  %94 = load ptr, ptr %93, align 8
  %95 = load ptr, ptr %7, align 8
  call void %94(ptr noundef %95)
  store ptr null, ptr %3, align 8
  br label %98

96:                                               ; preds = %75
  %97 = load ptr, ptr %7, align 8
  store ptr %97, ptr %3, align 8
  br label %98

98:                                               ; preds = %96, %89, %68, %42, %26
  %99 = load ptr, ptr %3, align 8
  ret ptr %99
}

; Function Attrs: nounwind uwtable
define internal i32 @find_sys_file(ptr noundef %0, ptr noundef %1, ptr noundef %2, ptr noundef %3) #0 {
  %5 = alloca i32, align 4
  %6 = alloca ptr, align 8
  %7 = alloca ptr, align 8
  %8 = alloca ptr, align 8
  %9 = alloca ptr, align 8
  %10 = alloca ptr, align 8
  %11 = alloca %struct.mschmd_file, align 8
  store ptr %0, ptr %6, align 8
  store ptr %1, ptr %7, align 8
  store ptr %2, ptr %8, align 8
  store ptr %3, ptr %9, align 8
  %12 = load ptr, ptr %6, align 8
  %13 = getelementptr inbounds %struct.mschm_decompressor_p, ptr %12, i32 0, i32 1
  %14 = load ptr, ptr %13, align 8
  store ptr %14, ptr %10, align 8
  %15 = load ptr, ptr %8, align 8
  %16 = load ptr, ptr %15, align 8
  %17 = icmp ne ptr %16, null
  br i1 %17, label %18, label %19

18:                                               ; preds = %4
  store i32 0, ptr %5, align 4
  br label %65

19:                                               ; preds = %4
  %20 = load ptr, ptr %6, align 8
  %21 = load ptr, ptr %7, align 8
  %22 = getelementptr inbounds %struct.mschmd_sec_mscompressed, ptr %21, i32 0, i32 0
  %23 = getelementptr inbounds %struct.mschmd_section, ptr %22, i32 0, i32 0
  %24 = load ptr, ptr %23, align 8
  %25 = load ptr, ptr %9, align 8
  %26 = call i32 @chmd_fast_find(ptr noundef %20, ptr noundef %24, ptr noundef %25, ptr noundef %11, i32 noundef 40)
  %27 = icmp ne i32 %26, 0
  br i1 %27, label %32, label %28

28:                                               ; preds = %19
  %29 = getelementptr inbounds %struct.mschmd_file, ptr %11, i32 0, i32 1
  %30 = load ptr, ptr %29, align 8
  %31 = icmp ne ptr %30, null
  br i1 %31, label %33, label %32

32:                                               ; preds = %28, %19
  store i32 8, ptr %5, align 4
  br label %65

33:                                               ; preds = %28
  %34 = load ptr, ptr %10, align 8
  %35 = getelementptr inbounds %struct.mspack_system, ptr %34, i32 0, i32 7
  %36 = load ptr, ptr %35, align 8
  %37 = load ptr, ptr %10, align 8
  %38 = call ptr %36(ptr noundef %37, i64 noundef 40)
  %39 = load ptr, ptr %8, align 8
  store ptr %38, ptr %39, align 8
  %40 = icmp ne ptr %38, null
  br i1 %40, label %42, label %41

41:                                               ; preds = %33
  store i32 6, ptr %5, align 4
  br label %65

42:                                               ; preds = %33
  %43 = load ptr, ptr %8, align 8
  %44 = load ptr, ptr %43, align 8
  call void @llvm.memcpy.p0.p0.i64(ptr align 8 %44, ptr align 8 %11, i64 40, i1 false)
  %45 = load ptr, ptr %9, align 8
  %46 = load ptr, ptr %8, align 8
  %47 = load ptr, ptr %46, align 8
  %48 = getelementptr inbounds %struct.mschmd_file, ptr %47, i32 0, i32 4
  store ptr %45, ptr %48, align 8
  %49 = load ptr, ptr %7, align 8
  %50 = getelementptr inbounds %struct.mschmd_sec_mscompressed, ptr %49, i32 0, i32 0
  %51 = getelementptr inbounds %struct.mschmd_section, ptr %50, i32 0, i32 0
  %52 = load ptr, ptr %51, align 8
  %53 = getelementptr inbounds %struct.mschmd_header, ptr %52, i32 0, i32 6
  %54 = load ptr, ptr %53, align 8
  %55 = load ptr, ptr %8, align 8
  %56 = load ptr, ptr %55, align 8
  %57 = getelementptr inbounds %struct.mschmd_file, ptr %56, i32 0, i32 0
  store ptr %54, ptr %57, align 8
  %58 = load ptr, ptr %8, align 8
  %59 = load ptr, ptr %58, align 8
  %60 = load ptr, ptr %7, align 8
  %61 = getelementptr inbounds %struct.mschmd_sec_mscompressed, ptr %60, i32 0, i32 0
  %62 = getelementptr inbounds %struct.mschmd_section, ptr %61, i32 0, i32 0
  %63 = load ptr, ptr %62, align 8
  %64 = getelementptr inbounds %struct.mschmd_header, ptr %63, i32 0, i32 6
  store ptr %59, ptr %64, align 8
  store i32 0, ptr %5, align 4
  br label %65

65:                                               ; preds = %42, %41, %32, %18
  %66 = load i32, ptr %5, align 4
  ret i32 %66
}

; Function Attrs: nounwind uwtable
define internal i32 @read_spaninfo(ptr noundef %0, ptr noundef %1, ptr noundef %2) #0 {
  %4 = alloca i32, align 4
  %5 = alloca ptr, align 8
  %6 = alloca ptr, align 8
  %7 = alloca ptr, align 8
  %8 = alloca ptr, align 8
  %9 = alloca ptr, align 8
  %10 = alloca i32, align 4
  store ptr %0, ptr %5, align 8
  store ptr %1, ptr %6, align 8
  store ptr %2, ptr %7, align 8
  %11 = load ptr, ptr %5, align 8
  %12 = getelementptr inbounds %struct.mschm_decompressor_p, ptr %11, i32 0, i32 1
  %13 = load ptr, ptr %12, align 8
  store ptr %13, ptr %8, align 8
  %14 = load ptr, ptr %5, align 8
  %15 = load ptr, ptr %6, align 8
  %16 = load ptr, ptr %6, align 8
  %17 = getelementptr inbounds %struct.mschmd_sec_mscompressed, ptr %16, i32 0, i32 4
  %18 = load ptr, ptr @spaninfo_name, align 8
  %19 = call i32 @find_sys_file(ptr noundef %14, ptr noundef %15, ptr noundef %17, ptr noundef %18)
  store i32 %19, ptr %10, align 4
  %20 = load i32, ptr %10, align 4
  %21 = icmp ne i32 %20, 0
  br i1 %21, label %22, label %23

22:                                               ; preds = %3
  store i32 8, ptr %4, align 4
  br label %66

23:                                               ; preds = %3
  %24 = load ptr, ptr %6, align 8
  %25 = getelementptr inbounds %struct.mschmd_sec_mscompressed, ptr %24, i32 0, i32 4
  %26 = load ptr, ptr %25, align 8
  %27 = getelementptr inbounds %struct.mschmd_file, ptr %26, i32 0, i32 3
  %28 = load i64, ptr %27, align 8
  %29 = icmp ne i64 %28, 8
  br i1 %29, label %30, label %31

30:                                               ; preds = %23
  store i32 8, ptr %4, align 4
  br label %66

31:                                               ; preds = %23
  %32 = load ptr, ptr %7, align 8
  store i64 0, ptr %32, align 8
  %33 = load ptr, ptr %5, align 8
  %34 = load ptr, ptr %6, align 8
  %35 = getelementptr inbounds %struct.mschmd_sec_mscompressed, ptr %34, i32 0, i32 4
  %36 = load ptr, ptr %35, align 8
  %37 = call ptr @read_sys_file(ptr noundef %33, ptr noundef %36)
  store ptr %37, ptr %9, align 8
  %38 = icmp ne ptr %37, null
  br i1 %38, label %43, label %39

39:                                               ; preds = %31
  %40 = load ptr, ptr %5, align 8
  %41 = getelementptr inbounds %struct.mschm_decompressor_p, ptr %40, i32 0, i32 3
  %42 = load i32, ptr %41, align 8
  store i32 %42, ptr %4, align 4
  br label %66

43:                                               ; preds = %31
  %44 = load ptr, ptr %7, align 8
  %45 = load ptr, ptr %9, align 8
  %46 = load ptr, ptr %8, align 8
  %47 = load ptr, ptr %5, align 8
  %48 = getelementptr inbounds %struct.mschm_decompressor_p, ptr %47, i32 0, i32 2
  %49 = load ptr, ptr %48, align 8
  %50 = getelementptr inbounds %struct.mschmd_decompress_state, ptr %49, i32 0, i32 6
  %51 = load ptr, ptr %50, align 8
  %52 = call i32 @read_off64(ptr noundef %44, ptr noundef %45, ptr noundef %46, ptr noundef %51)
  store i32 %52, ptr %10, align 4
  %53 = load ptr, ptr %8, align 8
  %54 = getelementptr inbounds %struct.mspack_system, ptr %53, i32 0, i32 8
  %55 = load ptr, ptr %54, align 8
  %56 = load ptr, ptr %9, align 8
  call void %55(ptr noundef %56)
  %57 = load i32, ptr %10, align 4
  %58 = icmp ne i32 %57, 0
  br i1 %58, label %59, label %60

59:                                               ; preds = %43
  store i32 8, ptr %4, align 4
  br label %66

60:                                               ; preds = %43
  %61 = load ptr, ptr %7, align 8
  %62 = load i64, ptr %61, align 8
  %63 = icmp sle i64 %62, 0
  br i1 %63, label %64, label %65

64:                                               ; preds = %60
  store i32 8, ptr %4, align 4
  br label %66

65:                                               ; preds = %60
  store i32 0, ptr %4, align 4
  br label %66

66:                                               ; preds = %65, %64, %59, %39, %30, %22
  %67 = load i32, ptr %4, align 4
  ret i32 %67
}