; Function Attrs: nounwind uwtable
define internal fastcc i32 @read_spaninfo(ptr noundef %0, ptr nocapture noundef %1, ptr nocapture noundef %2) unnamed_addr #0 {
  %4 = alloca %struct.mschmd_file, align 8
  %5 = getelementptr inbounds i8, ptr %0, i64 48
  %6 = load ptr, ptr %5, align 8
  %7 = getelementptr inbounds i8, ptr %1, i64 40
  call void @llvm.lifetime.start.p0(i64 40, ptr nonnull %4)
  %8 = load ptr, ptr %7, align 8
  %.not.i = icmp eq ptr %8, null
  br i1 %.not.i, label %9, label %30

9:                                                ; preds = %3
  %10 = load ptr, ptr %1, align 8
  %11 = call i32 @chmd_fast_find(ptr noundef nonnull %0, ptr noundef %10, ptr noundef nonnull @.str.11, ptr noundef nonnull %4, i32 noundef 40)
  %12 = icmp eq i32 %11, 0
  %13 = getelementptr inbounds i8, ptr %4, i64 8
  %14 = load ptr, ptr %13, align 8
  %15 = icmp ne ptr %14, null
  %or.cond.i = select i1 %12, i1 %15, i1 false
  br i1 %or.cond.i, label %16, label %find_sys_file.exit

16:                                               ; preds = %9
  %17 = getelementptr inbounds i8, ptr %6, i64 56
  %18 = load ptr, ptr %17, align 8
  %19 = call ptr %18(ptr noundef %6, i64 noundef 40) #12
  store ptr %19, ptr %7, align 8
  %.not18.i = icmp eq ptr %19, null
  br i1 %.not18.i, label %find_sys_file.exit, label %20

20:                                               ; preds = %16
  call void @llvm.memcpy.p0.p0.i64(ptr noundef nonnull align 8 dereferenceable(40) %19, ptr noundef nonnull align 8 dereferenceable(40) %4, i64 40, i1 false)
  %21 = load ptr, ptr %7, align 8
  %22 = getelementptr inbounds i8, ptr %21, i64 32
  store ptr @.str.11, ptr %22, align 8
  %23 = load ptr, ptr %1, align 8
  %24 = getelementptr inbounds i8, ptr %23, i64 40
  %25 = load ptr, ptr %24, align 8
  %26 = load ptr, ptr %7, align 8
  store ptr %25, ptr %26, align 8
  %27 = load ptr, ptr %7, align 8
  %28 = load ptr, ptr %1, align 8
  %29 = getelementptr inbounds i8, ptr %28, i64 40
  store ptr %27, ptr %29, align 8
  br label %30

find_sys_file.exit:                               ; preds = %9, %16
  call void @llvm.lifetime.end.p0(i64 40, ptr nonnull %4)
  br label %93

30:                                               ; preds = %20, %3
  %31 = phi ptr [ %27, %20 ], [ %8, %3 ]
  call void @llvm.lifetime.end.p0(i64 40, ptr nonnull %4)
  %32 = getelementptr inbounds i8, ptr %31, i64 24
  %33 = load i64, ptr %32, align 8
  %.not19 = icmp eq i64 %33, 8
  br i1 %.not19, label %34, label %93

34:                                               ; preds = %30
  store i64 0, ptr %2, align 8
  %35 = load ptr, ptr %7, align 8
  %36 = load ptr, ptr %5, align 8
  %.not.i21 = icmp eq ptr %35, null
  br i1 %.not.i21, label %43, label %37

37:                                               ; preds = %34
  %38 = getelementptr inbounds i8, ptr %35, i64 8
  %39 = load ptr, ptr %38, align 8
  %.not29.i = icmp eq ptr %39, null
  br i1 %.not29.i, label %43, label %40

40:                                               ; preds = %37
  %41 = getelementptr inbounds i8, ptr %39, i64 8
  %42 = load i32, ptr %41, align 8
  %.not30.i = icmp eq i32 %42, 0
  br i1 %.not30.i, label %45, label %43

43:                                               ; preds = %40, %37, %34
  %44 = getelementptr inbounds i8, ptr %0, i64 64
  store i32 8, ptr %44, align 8
  br label %85

45:                                               ; preds = %40
  %46 = getelementptr inbounds i8, ptr %35, i64 24
  %47 = load i64, ptr %46, align 8
  %48 = trunc i64 %47 to i32
  %49 = getelementptr inbounds i8, ptr %36, i64 56
  %50 = load ptr, ptr %49, align 8
  %sext.i = shl i64 %47, 32
  %51 = ashr exact i64 %sext.i, 32
  %52 = call ptr %50(ptr noundef %36, i64 noundef %51) #12
  %.not31.i = icmp eq ptr %52, null
  br i1 %.not31.i, label %53, label %55

53:                                               ; preds = %45
  %54 = getelementptr inbounds i8, ptr %0, i64 64
  store i32 6, ptr %54, align 8
  br label %85

55:                                               ; preds = %45
  %56 = getelementptr inbounds i8, ptr %36, i64 32
  %57 = load ptr, ptr %56, align 8
  %58 = getelementptr inbounds i8, ptr %0, i64 56
  %59 = load ptr, ptr %58, align 8
  %60 = getelementptr inbounds i8, ptr %59, i64 128
  %61 = load ptr, ptr %60, align 8
  %62 = load ptr, ptr %38, align 8
  %63 = load ptr, ptr %62, align 8
  %64 = getelementptr inbounds i8, ptr %63, i64 64
  %65 = load i64, ptr %64, align 8
  %66 = getelementptr inbounds i8, ptr %35, i64 16
  %67 = load i64, ptr %66, align 8
  %68 = add nsw i64 %67, %65
  %69 = call i32 %57(ptr noundef %61, i64 noundef %68, i32 noundef 0) #12
  %.not32.i = icmp eq i32 %69, 0
  br i1 %.not32.i, label %74, label %70

70:                                               ; preds = %55
  %71 = getelementptr inbounds i8, ptr %0, i64 64
  store i32 5, ptr %71, align 8
  %72 = getelementptr inbounds i8, ptr %36, i64 64
  %73 = load ptr, ptr %72, align 8
  call void %73(ptr noundef nonnull %52) #12
  br label %85

74:                                               ; preds = %55
  %75 = getelementptr inbounds i8, ptr %36, i64 16
  %76 = load ptr, ptr %75, align 8
  %77 = load ptr, ptr %58, align 8
  %78 = getelementptr inbounds i8, ptr %77, i64 128
  %79 = load ptr, ptr %78, align 8
  %80 = call i32 %76(ptr noundef %79, ptr noundef nonnull %52, i32 noundef %48) #12
  %.not33.i = icmp eq i32 %80, %48
  br i1 %.not33.i, label %read_sys_file.exit, label %81

81:                                               ; preds = %74
  %82 = getelementptr inbounds i8, ptr %0, i64 64
  store i32 3, ptr %82, align 8
  %83 = getelementptr inbounds i8, ptr %36, i64 64
  %84 = load ptr, ptr %83, align 8
  call void %84(ptr noundef nonnull %52) #12
  br label %85

85:                                               ; preds = %43, %70, %81, %53
  %86 = getelementptr inbounds i8, ptr %0, i64 64
  %87 = load i32, ptr %86, align 8
  br label %93

read_sys_file.exit:                               ; preds = %74
  %88 = load i64, ptr %52, align 1
  store i64 %88, ptr %2, align 8
  %89 = getelementptr inbounds i8, ptr %6, i64 64
  %90 = load ptr, ptr %89, align 8
  call void %90(ptr noundef nonnull %52) #12
  %91 = load i64, ptr %2, align 8
  %92 = icmp slt i64 %91, 1
  %spec.select = select i1 %92, i32 8, i32 0
  br label %93

93:                                               ; preds = %find_sys_file.exit, %read_sys_file.exit, %30, %85
  %.0 = phi i32 [ %87, %85 ], [ 8, %find_sys_file.exit ], [ 8, %30 ], [ %spec.select, %read_sys_file.exit ]
  ret i32 %.0
}